; Function Attrs: mustprogress nofree norecurse nosync nounwind willreturn memory(read, inaccessiblemem: none) uwtable
define dso_local noundef float @_ZN5ImGui15GetColumnOffsetEi(i32 noundef %0) local_unnamed_addr #12 {
  %2 = load ptr, ptr @GImGui, align 8, !tbaa !4
  %3 = getelementptr inbounds nuw i8, ptr %2, i64 4928
  %4 = load ptr, ptr %3, align 8, !tbaa !9
  %5 = getelementptr inbounds nuw i8, ptr %4, i64 448
  %6 = load ptr, ptr %5, align 8, !tbaa !608
  %7 = icmp eq ptr %6, null
  br i1 %7, label %26, label %8

8:                                                ; preds = %1
  %9 = icmp slt i32 %0, 0
  br i1 %9, label %10, label %13

10:                                               ; preds = %8
  %11 = getelementptr inbounds nuw i8, ptr %6, i64 12
  %12 = load i32, ptr %11, align 4, !tbaa !609
  br label %13

13:                                               ; preds = %10, %8
  %.010 = phi i32 [ %12, %10 ], [ %0, %8 ]
  %14 = getelementptr inbounds nuw i8, ptr %6, i64 104
  %15 = load ptr, ptr %14, align 8, !tbaa !616
  %16 = sext i32 %.010 to i64
  %17 = getelementptr inbounds %struct.ImGuiOldColumnData, ptr %15, i64 %16
  %18 = load float, ptr %17, align 4, !tbaa !617
  %19 = getelementptr inbounds nuw i8, ptr %6, i64 20
  %20 = load float, ptr %19, align 4, !tbaa !615
  %21 = getelementptr inbounds nuw i8, ptr %6, i64 24
  %22 = load float, ptr %21, align 8, !tbaa !614
  %23 = fsub float %22, %20
  %24 = fmul float %18, %23
  %25 = fadd float %20, %24
  br label %26

26:                                               ; preds = %1, %13
  %.0 = phi float [ %25, %13 ], [ 0.000000e+00, %1 ]
  ret float %.0
}